target datalayout = "e-m:e-p270:32:32-p271:32:32-p272:64:64-i64:64-i128:128-f80:128-n8:16:32:64-S128"
target triple = "x86_64-pc-linux-gnu"

%struct._value_string_ext = type { ptr, i32, i32, ptr, ptr }
%struct._wmem_tree_key_t = type { i32, ptr }
%struct.nstime_t = type { i64, i32 }
%struct._packet_info = type { ptr, ptr, i32, i32, %struct.nstime_t, %struct.nstime_t, %struct.nstime_t, i8, ptr, ptr, ptr, ptr, %struct._address, %struct._address, %struct._address, %struct._address, %struct._address, %struct._address, i32, ptr, i8, [3 x i8], %struct.anon, i32, i32, i32, i32, ptr, i8, ptr, ptr, i16, i16, i32, i32, i16, i32, i32, ptr, ptr, ptr, i8, i8, i16, i16, i16, i32, i16, i16, ptr, ptr, ptr, ptr, ptr, i32, i32 }
%struct._address = type { i32, i32, ptr, ptr }
%struct.anon = type { i8, [3 x i8] }
%struct._bluetooth_data_t = type { i32, i32, ptr, ptr, ptr, ptr, ptr, ptr, ptr, ptr, ptr, ptr, ptr, i32, %union.anon }
%union.anon = type { ptr }
%struct._bluetooth_hci_summary_tap_t = type { i32, i32, i16, i8, i8, i8, i8, i8, i8, ptr, i32 }
%struct._bluetooth_device_tap_t = type { i32, i32, i8, i8, [6 x i8], i32, %union.anon.2 }
%union.anon.2 = type { ptr, [8 x i8] }
%struct._remote_bdaddr_t = type { i32, i32, i16, [6 x i8] }
%struct.anon.4 = type { i8, i16, i16 }

@hf_bthci_evt_connection_handle = internal global i32 0, align 4
@hf_bthci_evt_status = internal global i32 0, align 4
@bthci_cmd_status_vals_ext = external global %struct._value_string_ext, align 8
@hf_bthci_evt_vers_nr = internal global i32 0, align 4
@hf_bthci_evt_comp_id = internal global i32 0, align 4
@hf_bthci_evt_sub_vers_nr = internal global i32 0, align 4
@.str.1819 = private unnamed_addr constant [15 x i8] c"Unknown 0x%02x\00", align 1
@bluetooth_hci_summary_tap = external global i32, align 4
@bluetooth_device_tap = external global i32, align 4

; Function Attrs: alwaysinline nounwind
define internal ptr @memcpy.inline(ptr noalias %0, ptr noalias %1, i64 %2) #9 {
  %4 = alloca ptr, align 8
  %5 = alloca ptr, align 8
  %6 = alloca i64, align 8
  store ptr %0, ptr %4, align 8
  store ptr %1, ptr %5, align 8
  store i64 %2, ptr %6, align 8
  %7 = load ptr, ptr %4, align 8
  %8 = load ptr, ptr %5, align 8
  %9 = load i64, ptr %6, align 8
  %10 = load ptr, ptr %4, align 8
  %11 = call i64 @llvm.objectsize.i64.p0(ptr %10, i1 false, i1 true, i1 true)
  %12 = call ptr @__memcpy_chk(ptr noundef %7, ptr noundef %8, i64 noundef %9, i64 noundef %11) #11
  ret ptr %12
}

; Function Attrs: null_pointer_is_valid sspstrong uwtable
define internal void @send_hci_summary_status_tap(i8 noundef zeroext %0, ptr noundef %1, ptr noundef %2) #1 {
  %4 = alloca i8, align 1
  %5 = alloca ptr, align 8
  %6 = alloca ptr, align 8
  %7 = alloca ptr, align 8
  store i8 %0, ptr %4, align 1
  store ptr %1, ptr %5, align 8
  store ptr %2, ptr %6, align 8
  %8 = load i32, ptr @bluetooth_hci_summary_tap, align 4
  %9 = call zeroext i1 @have_tap_listener(i32 noundef %8)
  br i1 %9, label %10, label %47

10:                                               ; preds = %3
  call void @llvm.lifetime.start.p0(i64 8, ptr %7) #11
  %11 = load ptr, ptr %5, align 8
  %12 = getelementptr inbounds nuw %struct._packet_info, ptr %11, i32 0, i32 51
  %13 = load ptr, ptr %12, align 8
  %14 = call noalias ptr @wmem_alloc(ptr noundef %13, i64 noundef 32) #13
  store ptr %14, ptr %7, align 8
  %15 = load ptr, ptr %6, align 8
  %16 = getelementptr inbounds nuw %struct._bluetooth_data_t, ptr %15, i32 0, i32 0
  %17 = load i32, ptr %16, align 8
  %18 = load ptr, ptr %7, align 8
  %19 = getelementptr inbounds nuw %struct._bluetooth_hci_summary_tap_t, ptr %18, i32 0, i32 0
  store i32 %17, ptr %19, align 8
  %20 = load ptr, ptr %6, align 8
  %21 = getelementptr inbounds nuw %struct._bluetooth_data_t, ptr %20, i32 0, i32 1
  %22 = load i32, ptr %21, align 4
  %23 = load ptr, ptr %7, align 8
  %24 = getelementptr inbounds nuw %struct._bluetooth_hci_summary_tap_t, ptr %23, i32 0, i32 1
  store i32 %22, ptr %24, align 4
  %25 = load ptr, ptr %7, align 8
  %26 = getelementptr inbounds nuw %struct._bluetooth_hci_summary_tap_t, ptr %25, i32 0, i32 10
  store i32 7, ptr %26, align 8
  %27 = load i8, ptr %4, align 1
  %28 = load ptr, ptr %7, align 8
  %29 = getelementptr inbounds nuw %struct._bluetooth_hci_summary_tap_t, ptr %28, i32 0, i32 6
  store i8 %27, ptr %29, align 1
  %30 = load i8, ptr %4, align 1
  %31 = zext i8 %30 to i32
  %32 = call ptr @try_val_to_str_ext(i32 noundef %31, ptr noundef @bthci_cmd_status_vals_ext)
  %33 = icmp ne ptr %32, null
  br i1 %33, label %34, label %40

34:                                               ; preds = %10
  %35 = load i8, ptr %4, align 1
  %36 = zext i8 %35 to i32
  %37 = call ptr @val_to_str_ext(i32 noundef %36, ptr noundef @bthci_cmd_status_vals_ext, ptr noundef @.str.1819)
  %38 = load ptr, ptr %7, align 8
  %39 = getelementptr inbounds nuw %struct._bluetooth_hci_summary_tap_t, ptr %38, i32 0, i32 9
  store ptr %37, ptr %39, align 8
  br label %43

40:                                               ; preds = %10
  %41 = load ptr, ptr %7, align 8
  %42 = getelementptr inbounds nuw %struct._bluetooth_hci_summary_tap_t, ptr %41, i32 0, i32 9
  store ptr null, ptr %42, align 8
  br label %43

43:                                               ; preds = %40, %34
  %44 = load i32, ptr @bluetooth_hci_summary_tap, align 4
  %45 = load ptr, ptr %5, align 8
  %46 = load ptr, ptr %7, align 8
  call void @tap_queue_packet(i32 noundef %44, ptr noundef %45, ptr noundef %46)
  call void @llvm.lifetime.end.p0(i64 8, ptr %7) #11
  br label %47

47:                                               ; preds = %43, %3
  ret void
}

; Function Attrs: null_pointer_is_valid sspstrong uwtable
define internal i32 @dissect_bthci_evt_read_remote_version_information_complete(ptr noundef %0, i32 noundef %1, ptr noundef %2, ptr noundef %3, ptr noundef %4) #1 {
  %6 = alloca ptr, align 8
  %7 = alloca i32, align 4
  %8 = alloca ptr, align 8
  %9 = alloca ptr, align 8
  %10 = alloca ptr, align 8
  %11 = alloca ptr, align 8
  %12 = alloca [4 x %struct._wmem_tree_key_t], align 16
  %13 = alloca i32, align 4
  %14 = alloca i32, align 4
  %15 = alloca i32, align 4
  %16 = alloca ptr, align 8
  %17 = alloca ptr, align 8
  %18 = alloca i8, align 1
  %19 = alloca i16, align 2
  %20 = alloca i16, align 2
  store ptr %0, ptr %6, align 8
  store i32 %1, ptr %7, align 4
  store ptr %2, ptr %8, align 8
  store ptr %3, ptr %9, align 8
  store ptr %4, ptr %10, align 8
  %21 = load ptr, ptr %10, align 8
  %22 = load i32, ptr @hf_bthci_evt_status, align 4
  %23 = load ptr, ptr %6, align 8
  %24 = load i32, ptr %7, align 4
  %25 = call ptr @proto_tree_add_item(ptr noundef %21, i32 noundef %22, ptr noundef %23, i32 noundef %24, i32 noundef 1, i32 noundef -2147483648)
  %26 = load ptr, ptr %6, align 8
  %27 = load i32, ptr %7, align 4
  %28 = call zeroext i8 @tvb_get_uint8(ptr noundef %26, i32 noundef %27)
  %29 = load ptr, ptr %8, align 8
  %30 = load ptr, ptr %9, align 8
  call void @send_hci_summary_status_tap(i8 noundef zeroext %28, ptr noundef %29, ptr noundef %30)
  %31 = load i32, ptr %7, align 4
  %32 = add i32 %31, 1
  store i32 %32, ptr %7, align 4
  %33 = load ptr, ptr %10, align 8
  %34 = load i32, ptr @hf_bthci_evt_connection_handle, align 4
  %35 = load ptr, ptr %6, align 8
  %36 = load i32, ptr %7, align 4
  %37 = call ptr @proto_tree_add_item(ptr noundef %33, i32 noundef %34, ptr noundef %35, i32 noundef %36, i32 noundef 2, i32 noundef -2147483648)
  %38 = load i32, ptr %7, align 4
  %39 = add i32 %38, 2
  store i32 %39, ptr %7, align 4
  %40 = load ptr, ptr %10, align 8
  %41 = load i32, ptr @hf_bthci_evt_vers_nr, align 4
  %42 = load ptr, ptr %6, align 8
  %43 = load i32, ptr %7, align 4
  %44 = call ptr @proto_tree_add_item(ptr noundef %40, i32 noundef %41, ptr noundef %42, i32 noundef %43, i32 noundef 1, i32 noundef -2147483648)
  %45 = load i32, ptr %7, align 4
  %46 = add i32 %45, 1
  store i32 %46, ptr %7, align 4
  %47 = load ptr, ptr %10, align 8
  %48 = load i32, ptr @hf_bthci_evt_comp_id, align 4
  %49 = load ptr, ptr %6, align 8
  %50 = load i32, ptr %7, align 4
  %51 = call ptr @proto_tree_add_item(ptr noundef %47, i32 noundef %48, ptr noundef %49, i32 noundef %50, i32 noundef 2, i32 noundef -2147483648)
  %52 = load i32, ptr %7, align 4
  %53 = add i32 %52, 2
  store i32 %53, ptr %7, align 4
  %54 = load ptr, ptr %10, align 8
  %55 = load i32, ptr @hf_bthci_evt_sub_vers_nr, align 4
  %56 = load ptr, ptr %6, align 8
  %57 = load i32, ptr %7, align 4
  %58 = call ptr @proto_tree_add_item(ptr noundef %54, i32 noundef %55, ptr noundef %56, i32 noundef %57, i32 noundef 2, i32 noundef -2147483648)
  %59 = load i32, ptr %7, align 4
  %60 = add i32 %59, 2
  store i32 %60, ptr %7, align 4
  %61 = load i32, ptr @bluetooth_device_tap, align 4
  %62 = call zeroext i1 @have_tap_listener(i32 noundef %61)
  br i1 %62, label %63, label %169

63:                                               ; preds = %5
  call void @llvm.lifetime.start.p0(i64 8, ptr %11) #11
  call void @llvm.lifetime.start.p0(i64 64, ptr %12) #11
  call void @llvm.lifetime.start.p0(i64 4, ptr %13) #11
  call void @llvm.lifetime.start.p0(i64 4, ptr %14) #11
  call void @llvm.lifetime.start.p0(i64 4, ptr %15) #11
  call void @llvm.lifetime.start.p0(i64 8, ptr %16) #11
  call void @llvm.lifetime.start.p0(i64 8, ptr %17) #11
  call void @llvm.lifetime.start.p0(i64 1, ptr %18) #11
  call void @llvm.lifetime.start.p0(i64 2, ptr %19) #11
  call void @llvm.lifetime.start.p0(i64 2, ptr %20) #11
  %64 = load ptr, ptr %6, align 8
  %65 = load i32, ptr %7, align 4
  %66 = sub i32 %65, 5
  %67 = call zeroext i8 @tvb_get_uint8(ptr noundef %64, i32 noundef %66)
  store i8 %67, ptr %18, align 1
  %68 = load ptr, ptr %6, align 8
  %69 = load i32, ptr %7, align 4
  %70 = sub i32 %69, 4
  %71 = call zeroext i16 @tvb_get_letohs(ptr noundef %68, i32 noundef %70)
  store i16 %71, ptr %20, align 2
  %72 = load ptr, ptr %6, align 8
  %73 = load i32, ptr %7, align 4
  %74 = sub i32 %73, 2
  %75 = call zeroext i16 @tvb_get_letohs(ptr noundef %72, i32 noundef %74)
  store i16 %75, ptr %19, align 2
  %76 = load ptr, ptr %9, align 8
  %77 = getelementptr inbounds nuw %struct._bluetooth_data_t, ptr %76, i32 0, i32 0
  %78 = load i32, ptr %77, align 8
  store i32 %78, ptr %13, align 4
  %79 = load ptr, ptr %9, align 8
  %80 = getelementptr inbounds nuw %struct._bluetooth_data_t, ptr %79, i32 0, i32 1
  %81 = load i32, ptr %80, align 4
  store i32 %81, ptr %14, align 4
  %82 = load ptr, ptr %6, align 8
  %83 = load i32, ptr %7, align 4
  %84 = sub i32 %83, 7
  %85 = call zeroext i16 @tvb_get_uint16(ptr noundef %82, i32 noundef %84, i32 noundef -2147483648)
  %86 = zext i16 %85 to i32
  %87 = and i32 %86, 4095
  store i32 %87, ptr %15, align 4
  %88 = getelementptr [4 x %struct._wmem_tree_key_t], ptr %12, i64 0, i64 0
  %89 = getelementptr inbounds nuw %struct._wmem_tree_key_t, ptr %88, i32 0, i32 0
  store i32 1, ptr %89, align 16
  %90 = getelementptr [4 x %struct._wmem_tree_key_t], ptr %12, i64 0, i64 0
  %91 = getelementptr inbounds nuw %struct._wmem_tree_key_t, ptr %90, i32 0, i32 1
  store ptr %13, ptr %91, align 8
  %92 = getelementptr [4 x %struct._wmem_tree_key_t], ptr %12, i64 0, i64 1
  %93 = getelementptr inbounds nuw %struct._wmem_tree_key_t, ptr %92, i32 0, i32 0
  store i32 1, ptr %93, align 16
  %94 = getelementptr [4 x %struct._wmem_tree_key_t], ptr %12, i64 0, i64 1
  %95 = getelementptr inbounds nuw %struct._wmem_tree_key_t, ptr %94, i32 0, i32 1
  store ptr %14, ptr %95, align 8
  %96 = getelementptr [4 x %struct._wmem_tree_key_t], ptr %12, i64 0, i64 2
  %97 = getelementptr inbounds nuw %struct._wmem_tree_key_t, ptr %96, i32 0, i32 0
  store i32 1, ptr %97, align 16
  %98 = getelementptr [4 x %struct._wmem_tree_key_t], ptr %12, i64 0, i64 2
  %99 = getelementptr inbounds nuw %struct._wmem_tree_key_t, ptr %98, i32 0, i32 1
  store ptr %15, ptr %99, align 8
  %100 = getelementptr [4 x %struct._wmem_tree_key_t], ptr %12, i64 0, i64 3
  %101 = getelementptr inbounds nuw %struct._wmem_tree_key_t, ptr %100, i32 0, i32 0
  store i32 0, ptr %101, align 16
  %102 = getelementptr [4 x %struct._wmem_tree_key_t], ptr %12, i64 0, i64 3
  %103 = getelementptr inbounds nuw %struct._wmem_tree_key_t, ptr %102, i32 0, i32 1
  store ptr null, ptr %103, align 8
  %104 = load ptr, ptr %9, align 8
  %105 = getelementptr inbounds nuw %struct._bluetooth_data_t, ptr %104, i32 0, i32 4
  %106 = load ptr, ptr %105, align 8
  %107 = getelementptr inbounds [4 x %struct._wmem_tree_key_t], ptr %12, i64 0, i64 0
  %108 = call ptr @wmem_tree_lookup32_array(ptr noundef %106, ptr noundef %107)
  store ptr %108, ptr %11, align 8
  %109 = load ptr, ptr %11, align 8
  %110 = icmp ne ptr %109, null
  br i1 %110, label %111, label %117

111:                                              ; preds = %63
  %112 = load ptr, ptr %11, align 8
  %113 = load ptr, ptr %8, align 8
  %114 = getelementptr inbounds nuw %struct._packet_info, ptr %113, i32 0, i32 3
  %115 = load i32, ptr %114, align 4
  %116 = call ptr @wmem_tree_lookup32_le(ptr noundef %112, i32 noundef %115)
  br label %118

117:                                              ; preds = %63
  br label %118

118:                                              ; preds = %117, %111
  %119 = phi ptr [ %116, %111 ], [ null, %117 ]
  store ptr %119, ptr %16, align 8
  %120 = load ptr, ptr %8, align 8
  %121 = getelementptr inbounds nuw %struct._packet_info, ptr %120, i32 0, i32 51
  %122 = load ptr, ptr %121, align 8
  %123 = call noalias ptr @wmem_alloc(ptr noundef %122, i64 noundef 40) #13
  store ptr %123, ptr %17, align 8
  %124 = load ptr, ptr %17, align 8
  %125 = getelementptr inbounds nuw %struct._bluetooth_device_tap_t, ptr %124, i32 0, i32 5
  store i32 4, ptr %125, align 8
  %126 = load ptr, ptr %9, align 8
  %127 = getelementptr inbounds nuw %struct._bluetooth_data_t, ptr %126, i32 0, i32 0
  %128 = load i32, ptr %127, align 8
  %129 = load ptr, ptr %17, align 8
  %130 = getelementptr inbounds nuw %struct._bluetooth_device_tap_t, ptr %129, i32 0, i32 0
  store i32 %128, ptr %130, align 8
  %131 = load ptr, ptr %9, align 8
  %132 = getelementptr inbounds nuw %struct._bluetooth_data_t, ptr %131, i32 0, i32 1
  %133 = load i32, ptr %132, align 4
  %134 = load ptr, ptr %17, align 8
  %135 = getelementptr inbounds nuw %struct._bluetooth_device_tap_t, ptr %134, i32 0, i32 1
  store i32 %133, ptr %135, align 4
  %136 = load ptr, ptr %16, align 8
  %137 = icmp ne ptr %136, null
  br i1 %137, label %138, label %148

138:                                              ; preds = %118
  %139 = load ptr, ptr %17, align 8
  %140 = getelementptr inbounds nuw %struct._bluetooth_device_tap_t, ptr %139, i32 0, i32 3
  store i8 1, ptr %140, align 1
  %141 = load ptr, ptr %17, align 8
  %142 = getelementptr inbounds nuw %struct._bluetooth_device_tap_t, ptr %141, i32 0, i32 4
  %143 = getelementptr inbounds [6 x i8], ptr %142, i64 0, i64 0
  %144 = load ptr, ptr %16, align 8
  %145 = getelementptr inbounds nuw %struct._remote_bdaddr_t, ptr %144, i32 0, i32 3
  %146 = getelementptr inbounds [6 x i8], ptr %145, i64 0, i64 0
  %147 = call ptr @memcpy.inline(ptr noundef %143, ptr noundef %146, i64 noundef 6) #11
  br label %151

148:                                              ; preds = %118
  %149 = load ptr, ptr %17, align 8
  %150 = getelementptr inbounds nuw %struct._bluetooth_device_tap_t, ptr %149, i32 0, i32 3
  store i8 0, ptr %150, align 1
  br label %151

151:                                              ; preds = %148, %138
  %152 = load ptr, ptr %17, align 8
  %153 = getelementptr inbounds nuw %struct._bluetooth_device_tap_t, ptr %152, i32 0, i32 2
  store i8 0, ptr %153, align 8
  %154 = load i8, ptr %18, align 1
  %155 = load ptr, ptr %17, align 8
  %156 = getelementptr inbounds nuw %struct._bluetooth_device_tap_t, ptr %155, i32 0, i32 6
  %157 = getelementptr inbounds nuw %struct.anon.4, ptr %156, i32 0, i32 0
  store i8 %154, ptr %157, align 8
  %158 = load i16, ptr %19, align 2
  %159 = load ptr, ptr %17, align 8
  %160 = getelementptr inbounds nuw %struct._bluetooth_device_tap_t, ptr %159, i32 0, i32 6
  %161 = getelementptr inbounds nuw %struct.anon.4, ptr %160, i32 0, i32 1
  store i16 %158, ptr %161, align 2
  %162 = load i16, ptr %20, align 2
  %163 = load ptr, ptr %17, align 8
  %164 = getelementptr inbounds nuw %struct._bluetooth_device_tap_t, ptr %163, i32 0, i32 6
  %165 = getelementptr inbounds nuw %struct.anon.4, ptr %164, i32 0, i32 2
  store i16 %162, ptr %165, align 4
  %166 = load i32, ptr @bluetooth_device_tap, align 4
  %167 = load ptr, ptr %8, align 8
  %168 = load ptr, ptr %17, align 8
  call void @tap_queue_packet(i32 noundef %166, ptr noundef %167, ptr noundef %168)
  call void @llvm.lifetime.end.p0(i64 2, ptr %20) #11
  call void @llvm.lifetime.end.p0(i64 2, ptr %19) #11
  call void @llvm.lifetime.end.p0(i64 1, ptr %18) #11
  call void @llvm.lifetime.end.p0(i64 8, ptr %17) #11
  call void @llvm.lifetime.end.p0(i64 8, ptr %16) #11
  call void @llvm.lifetime.end.p0(i64 4, ptr %15) #11
  call void @llvm.lifetime.end.p0(i64 4, ptr %14) #11
  call void @llvm.lifetime.end.p0(i64 4, ptr %13) #11
  call void @llvm.lifetime.end.p0(i64 64, ptr %12) #11
  call void @llvm.lifetime.end.p0(i64 8, ptr %11) #11
  br label %169

169:                                              ; preds = %151, %5
  %170 = load i32, ptr %7, align 4
  ret i32 %170
}