; Function Attrs: null_pointer_is_valid sspstrong uwtable
define internal fastcc void @dissect_bthci_evt_read_remote_version_information_complete(ptr noundef %0, ptr noundef %1, ptr noundef nonnull readonly captures(none) %2, ptr noundef %3) unnamed_addr #1 {
  %5 = alloca [4 x %struct._wmem_tree_key_t], align 16
  %6 = alloca i32, align 4
  %7 = alloca i32, align 4
  %8 = alloca i32, align 4
  %9 = load i32, ptr @hf_bthci_evt_status, align 4
  %10 = tail call ptr @proto_tree_add_item(ptr noundef %3, i32 noundef %9, ptr noundef %0, i32 noundef 2, i32 noundef 1, i32 noundef -2147483648)
  %11 = tail call zeroext i8 @tvb_get_uint8(ptr noundef %0, i32 noundef 2)
  %12 = load i32, ptr @bluetooth_hci_summary_tap, align 4
  %13 = tail call zeroext i1 @have_tap_listener(i32 noundef %12)
  br i1 %13, label %14, label %send_hci_summary_status_tap.exit

14:                                               ; preds = %4
  %15 = getelementptr inbounds nuw i8, ptr %1, i64 408
  %16 = load ptr, ptr %15, align 8
  %17 = tail call noalias dereferenceable_or_null(32) ptr @wmem_alloc(ptr noundef %16, i64 noundef 32) #11
  %18 = load i32, ptr %2, align 8
  store i32 %18, ptr %17, align 8
  %19 = getelementptr inbounds nuw i8, ptr %2, i64 4
  %20 = load i32, ptr %19, align 4
  %21 = getelementptr inbounds nuw i8, ptr %17, i64 4
  store i32 %20, ptr %21, align 4
  %22 = getelementptr inbounds nuw i8, ptr %17, i64 24
  store i32 7, ptr %22, align 8
  %23 = getelementptr inbounds nuw i8, ptr %17, i64 13
  store i8 %11, ptr %23, align 1
  %24 = zext i8 %11 to i32
  %25 = tail call ptr @try_val_to_str_ext(i32 noundef %24, ptr noundef nonnull @bthci_cmd_status_vals_ext)
  %.not.i = icmp eq ptr %25, null
  br i1 %.not.i, label %28, label %26

26:                                               ; preds = %14
  %27 = tail call ptr @val_to_str_ext(i32 noundef %24, ptr noundef nonnull @bthci_cmd_status_vals_ext, ptr noundef nonnull @.str.1819)
  br label %28

28:                                               ; preds = %26, %14
  %.sink.i = phi ptr [ %27, %26 ], [ null, %14 ]
  %29 = getelementptr inbounds nuw i8, ptr %17, i64 16
  store ptr %.sink.i, ptr %29, align 8
  %30 = load i32, ptr @bluetooth_hci_summary_tap, align 4
  tail call void @tap_queue_packet(i32 noundef %30, ptr noundef %1, ptr noundef %17)
  br label %send_hci_summary_status_tap.exit

send_hci_summary_status_tap.exit:                 ; preds = %4, %28
  %31 = load i32, ptr @hf_bthci_evt_connection_handle, align 4
  %32 = tail call ptr @proto_tree_add_item(ptr noundef %3, i32 noundef %31, ptr noundef %0, i32 noundef 3, i32 noundef 2, i32 noundef -2147483648)
  %33 = load i32, ptr @hf_bthci_evt_vers_nr, align 4
  %34 = tail call ptr @proto_tree_add_item(ptr noundef %3, i32 noundef %33, ptr noundef %0, i32 noundef 5, i32 noundef 1, i32 noundef -2147483648)
  %35 = load i32, ptr @hf_bthci_evt_comp_id, align 4
  %36 = tail call ptr @proto_tree_add_item(ptr noundef %3, i32 noundef %35, ptr noundef %0, i32 noundef 6, i32 noundef 2, i32 noundef -2147483648)
  %37 = load i32, ptr @hf_bthci_evt_sub_vers_nr, align 4
  %38 = tail call ptr @proto_tree_add_item(ptr noundef %3, i32 noundef %37, ptr noundef %0, i32 noundef 8, i32 noundef 2, i32 noundef -2147483648)
  %39 = load i32, ptr @bluetooth_device_tap, align 4
  %40 = tail call zeroext i1 @have_tap_listener(i32 noundef %39)
  br i1 %40, label %41, label %85

41:                                               ; preds = %send_hci_summary_status_tap.exit
  call void @llvm.lifetime.start.p0(i64 64, ptr nonnull %5) #9
  call void @llvm.lifetime.start.p0(i64 4, ptr nonnull %6) #9
  call void @llvm.lifetime.start.p0(i64 4, ptr nonnull %7) #9
  call void @llvm.lifetime.start.p0(i64 4, ptr nonnull %8) #9
  %42 = tail call zeroext i8 @tvb_get_uint8(ptr noundef %0, i32 noundef 5)
  %43 = tail call zeroext i16 @tvb_get_letohs(ptr noundef %0, i32 noundef 6)
  %44 = tail call zeroext i16 @tvb_get_letohs(ptr noundef %0, i32 noundef 8)
  %45 = load i32, ptr %2, align 8
  store i32 %45, ptr %6, align 4
  %46 = getelementptr inbounds nuw i8, ptr %2, i64 4
  %47 = load i32, ptr %46, align 4
  store i32 %47, ptr %7, align 4
  %48 = tail call zeroext i16 @tvb_get_uint16(ptr noundef %0, i32 noundef 3, i32 noundef -2147483648)
  %49 = and i16 %48, 4095
  %50 = zext nneg i16 %49 to i32
  store i32 %50, ptr %8, align 4
  store i32 1, ptr %5, align 16
  %51 = getelementptr inbounds nuw i8, ptr %5, i64 8
  store ptr %6, ptr %51, align 8
  %52 = getelementptr inbounds nuw i8, ptr %5, i64 16
  store i32 1, ptr %52, align 16
  %53 = getelementptr inbounds nuw i8, ptr %5, i64 24
  store ptr %7, ptr %53, align 8
  %54 = getelementptr inbounds nuw i8, ptr %5, i64 32
  store i32 1, ptr %54, align 16
  %55 = getelementptr inbounds nuw i8, ptr %5, i64 40
  store ptr %8, ptr %55, align 8
  %56 = getelementptr inbounds nuw i8, ptr %5, i64 48
  store i32 0, ptr %56, align 16
  %57 = getelementptr inbounds nuw i8, ptr %5, i64 56
  store ptr null, ptr %57, align 8
  %58 = getelementptr inbounds nuw i8, ptr %2, i64 24
  %59 = load ptr, ptr %58, align 8
  %60 = call ptr @wmem_tree_lookup32_array(ptr noundef %59, ptr noundef nonnull %5)
  %.not = icmp eq ptr %60, null
  br i1 %.not, label %65, label %61

61:                                               ; preds = %41
  %62 = getelementptr inbounds nuw i8, ptr %1, i64 20
  %63 = load i32, ptr %62, align 4
  %64 = call ptr @wmem_tree_lookup32_le(ptr noundef nonnull %60, i32 noundef %63)
  br label %65

65:                                               ; preds = %41, %61
  %66 = phi ptr [ %64, %61 ], [ null, %41 ]
  %67 = getelementptr inbounds nuw i8, ptr %1, i64 408
  %68 = load ptr, ptr %67, align 8
  %69 = call noalias dereferenceable_or_null(40) ptr @wmem_alloc(ptr noundef %68, i64 noundef 40) #11
  %70 = getelementptr inbounds nuw i8, ptr %69, i64 16
  store i32 4, ptr %70, align 8
  %71 = load i32, ptr %2, align 8
  store i32 %71, ptr %69, align 8
  %72 = load i32, ptr %46, align 4
  %73 = getelementptr inbounds nuw i8, ptr %69, i64 4
  store i32 %72, ptr %73, align 4
  %.not59 = icmp eq ptr %66, null
  %74 = getelementptr inbounds nuw i8, ptr %69, i64 9
  br i1 %.not59, label %78, label %75

75:                                               ; preds = %65
  store i8 1, ptr %74, align 1
  %76 = getelementptr inbounds nuw i8, ptr %69, i64 10
  %77 = getelementptr inbounds nuw i8, ptr %66, i64 10
  call void @llvm.memcpy.p0.p0.i64(ptr noundef nonnull align 1 dereferenceable(6) %76, ptr noundef nonnull align 1 dereferenceable(6) %77, i64 noundef 6, i1 noundef false) #9
  br label %79

78:                                               ; preds = %65
  store i8 0, ptr %74, align 1
  br label %79

79:                                               ; preds = %78, %75
  %80 = getelementptr inbounds nuw i8, ptr %69, i64 8
  store i8 0, ptr %80, align 8
  %81 = getelementptr inbounds nuw i8, ptr %69, i64 24
  store i8 %42, ptr %81, align 8
  %82 = getelementptr inbounds nuw i8, ptr %69, i64 26
  store i16 %44, ptr %82, align 2
  %83 = getelementptr inbounds nuw i8, ptr %69, i64 28
  store i16 %43, ptr %83, align 4
  %84 = load i32, ptr @bluetooth_device_tap, align 4
  call void @tap_queue_packet(i32 noundef %84, ptr noundef %1, ptr noundef %69)
  call void @llvm.lifetime.end.p0(i64 4, ptr nonnull %8) #9
  call void @llvm.lifetime.end.p0(i64 4, ptr nonnull %7) #9
  call void @llvm.lifetime.end.p0(i64 4, ptr nonnull %6) #9
  call void @llvm.lifetime.end.p0(i64 64, ptr nonnull %5) #9
  br label %85

85:                                               ; preds = %79, %send_hci_summary_status_tap.exit
  ret void
}